target datalayout = "e-m:e-p270:32:32-p271:32:32-p272:64:64-i64:64-i128:128-f80:128-n8:16:32:64-S128"
target triple = "x86_64-pc-linux-gnu"

@.str.1 = private unnamed_addr constant [3 x i8] c"rb\00", align 1

; Function Attrs: nounwind uwtable
define hidden i32 @mbedtls_entropy_update_manual(ptr noundef %0, ptr noundef %1, i64 noundef %2) #0 {
  %4 = alloca ptr, align 8
  %5 = alloca ptr, align 8
  %6 = alloca i64, align 8
  %7 = alloca i32, align 4
  store ptr %0, ptr %4, align 8, !tbaa !3
  store ptr %1, ptr %5, align 8, !tbaa !23
  store i64 %2, ptr %6, align 8, !tbaa !15
  call void @llvm.lifetime.start.p0(i64 4, ptr %7) #6
  store i32 -110, ptr %7, align 4, !tbaa !17
  %8 = load ptr, ptr %4, align 8, !tbaa !3
  %9 = load ptr, ptr %5, align 8, !tbaa !23
  %10 = load i64, ptr %6, align 8, !tbaa !15
  %11 = call i32 @entropy_update(ptr noundef %8, i8 noundef zeroext 20, ptr noundef %9, i64 noundef %10)
  store i32 %11, ptr %7, align 4, !tbaa !17
  %12 = load i32, ptr %7, align 4, !tbaa !17
  call void @llvm.lifetime.end.p0(i64 4, ptr %7) #6
  ret i32 %12
}

; Function Attrs: nounwind uwtable
define hidden i32 @mbedtls_entropy_update_seed_file(ptr noundef %0, ptr noundef %1) #0 {
  %3 = alloca i32, align 4
  %4 = alloca ptr, align 8
  %5 = alloca ptr, align 8
  %6 = alloca i32, align 4
  %7 = alloca ptr, align 8
  %8 = alloca i64, align 8
  %9 = alloca [1024 x i8], align 16
  %10 = alloca i32, align 4
  store ptr %0, ptr %4, align 8, !tbaa !3
  store ptr %1, ptr %5, align 8, !tbaa !23
  call void @llvm.lifetime.start.p0(i64 4, ptr %6) #6
  store i32 0, ptr %6, align 4, !tbaa !17
  call void @llvm.lifetime.start.p0(i64 8, ptr %7) #6
  call void @llvm.lifetime.start.p0(i64 8, ptr %8) #6
  call void @llvm.lifetime.start.p0(i64 1024, ptr %9) #6
  %11 = load ptr, ptr %5, align 8, !tbaa !23
  %12 = call noalias ptr @fopen(ptr noundef %11, ptr noundef @.str.1)
  store ptr %12, ptr %7, align 8, !tbaa !32
  %13 = icmp eq ptr %12, null
  br i1 %13, label %14, label %15

14:                                               ; preds = %2
  store i32 -63, ptr %3, align 4
  store i32 1, ptr %10, align 4
  br label %51

15:                                               ; preds = %2
  %16 = load ptr, ptr %7, align 8, !tbaa !32
  call void @setbuf(ptr noundef %16, ptr noundef null) #6
  %17 = load ptr, ptr %7, align 8, !tbaa !32
  %18 = call i32 @fseek(ptr noundef %17, i64 noundef 0, i32 noundef 2)
  %19 = load ptr, ptr %7, align 8, !tbaa !32
  %20 = call i64 @ftell(ptr noundef %19)
  store i64 %20, ptr %8, align 8, !tbaa !15
  %21 = load ptr, ptr %7, align 8, !tbaa !32
  %22 = call i32 @fseek(ptr noundef %21, i64 noundef 0, i32 noundef 0)
  %23 = load i64, ptr %8, align 8, !tbaa !15
  %24 = icmp ugt i64 %23, 1024
  br i1 %24, label %25, label %26

25:                                               ; preds = %15
  store i64 1024, ptr %8, align 8, !tbaa !15
  br label %26

26:                                               ; preds = %25, %15
  %27 = getelementptr inbounds [1024 x i8], ptr %9, i64 0, i64 0
  %28 = load i64, ptr %8, align 8, !tbaa !15
  %29 = load ptr, ptr %7, align 8, !tbaa !32
  %30 = call i64 @fread(ptr noundef %27, i64 noundef 1, i64 noundef %28, ptr noundef %29)
  %31 = load i64, ptr %8, align 8, !tbaa !15
  %32 = icmp ne i64 %30, %31
  br i1 %32, label %33, label %34

33:                                               ; preds = %26
  store i32 -63, ptr %6, align 4, !tbaa !17
  br label %39

34:                                               ; preds = %26
  %35 = load ptr, ptr %4, align 8, !tbaa !3
  %36 = getelementptr inbounds [1024 x i8], ptr %9, i64 0, i64 0
  %37 = load i64, ptr %8, align 8, !tbaa !15
  %38 = call i32 @mbedtls_entropy_update_manual(ptr noundef %35, ptr noundef %36, i64 noundef %37)
  store i32 %38, ptr %6, align 4, !tbaa !17
  br label %39

39:                                               ; preds = %34, %33
  %40 = load ptr, ptr %7, align 8, !tbaa !32
  %41 = call i32 @fclose(ptr noundef %40)
  %42 = getelementptr inbounds [1024 x i8], ptr %9, i64 0, i64 0
  call void @mbedtls_platform_zeroize(ptr noundef %42, i64 noundef 1024)
  %43 = load i32, ptr %6, align 4, !tbaa !17
  %44 = icmp ne i32 %43, 0
  br i1 %44, label %45, label %47

45:                                               ; preds = %39
  %46 = load i32, ptr %6, align 4, !tbaa !17
  store i32 %46, ptr %3, align 4
  store i32 1, ptr %10, align 4
  br label %51

47:                                               ; preds = %39
  %48 = load ptr, ptr %4, align 8, !tbaa !3
  %49 = load ptr, ptr %5, align 8, !tbaa !23
  %50 = call i32 @mbedtls_entropy_write_seed_file(ptr noundef %48, ptr noundef %49)
  store i32 %50, ptr %3, align 4
  store i32 1, ptr %10, align 4
  br label %51

51:                                               ; preds = %47, %45, %14
  call void @llvm.lifetime.end.p0(i64 1024, ptr %9) #6
  call void @llvm.lifetime.end.p0(i64 8, ptr %8) #6
  call void @llvm.lifetime.end.p0(i64 8, ptr %7) #6
  call void @llvm.lifetime.end.p0(i64 4, ptr %6) #6
  %52 = load i32, ptr %3, align 4
  ret i32 %52
}