; Function Attrs: nounwind uwtable
define hidden i32 @mbedtls_entropy_update_seed_file(ptr noundef %0, ptr noundef readonly captures(none) %1) local_unnamed_addr #0 {
  %3 = alloca [1024 x i8], align 16
  call void @llvm.lifetime.start.p0(i64 1024, ptr nonnull %3) #10
  %4 = tail call noalias ptr @fopen(ptr noundef %1, ptr noundef nonnull @.str.1)
  %5 = icmp eq ptr %4, null
  br i1 %5, label %17, label %6

6:                                                ; preds = %2
  tail call void @setbuf(ptr noundef nonnull %4, ptr noundef null) #10
  %7 = tail call i32 @fseek(ptr noundef nonnull %4, i64 noundef 0, i32 noundef 2)
  %8 = tail call i64 @ftell(ptr noundef nonnull %4)
  %9 = tail call i32 @fseek(ptr noundef nonnull %4, i64 noundef 0, i32 noundef 0)
  %spec.store.select = tail call i64 @llvm.umin.i64(i64 %8, i64 1024)
  %10 = call i64 @fread(ptr noundef nonnull %3, i64 noundef 1, i64 noundef %spec.store.select, ptr noundef nonnull %4)
  %.not = icmp eq i64 %10, %spec.store.select
  br i1 %.not, label %11, label %13

11:                                               ; preds = %6
  %12 = call fastcc i32 @entropy_update(ptr noundef %0, i8 noundef zeroext 20, ptr noundef nonnull %3, i64 noundef %spec.store.select)
  br label %13

13:                                               ; preds = %6, %11
  %.016 = phi i32 [ %12, %11 ], [ -63, %6 ]
  %14 = call i32 @fclose(ptr noundef nonnull %4)
  call void @mbedtls_platform_zeroize(ptr noundef nonnull %3, i64 noundef 1024) #10
  %.not18 = icmp eq i32 %.016, 0
  br i1 %.not18, label %15, label %17

15:                                               ; preds = %13
  %16 = call i32 @mbedtls_entropy_write_seed_file(ptr noundef %0, ptr noundef %1)
  br label %17

17:                                               ; preds = %13, %2, %15
  %.0 = phi i32 [ %16, %15 ], [ -63, %2 ], [ %.016, %13 ]
  call void @llvm.lifetime.end.p0(i64 1024, ptr nonnull %3) #10
  ret i32 %.0
}